target datalayout = "e-m:e-p270:32:32-p271:32:32-p272:64:64-i64:64-i128:128-f80:128-n8:16:32:64-S128"
target triple = "x86_64-pc-linux-gnu"

%struct._zval_struct = type { %union._zend_value, %union.anon.3, %union.anon.6 }
%union._zend_value = type { i64 }
%union.anon.3 = type { i32 }
%union.anon.6 = type { i32 }
%struct._zend_array = type { %struct._zend_refcounted_h, %union.anon.0, i32, %union.anon.1, i32, i32, i32, i32, i64, ptr }
%struct._zend_refcounted_h = type { i32, %union.anon }
%union.anon = type { i32 }
%union.anon.0 = type { i32 }
%union.anon.1 = type { ptr }
%struct._php_core_globals = type { i64, i8, i8, i8, i8, i8, i8, i8, i8, ptr, ptr, i64, i64, i64, ptr, ptr, ptr, ptr, ptr, i8, ptr, ptr, ptr, ptr, i64, ptr, ptr, ptr, ptr, ptr, ptr, ptr, %struct._arg_separators, ptr, %struct._zend_array, i16, i8, i8, %struct._zend_llist, [6 x %struct._zval_struct], i8, i8, i8, i8, i8, ptr, ptr, i64, [8 x i8], i8, i8, i8, i8, i8, i8, i32, i32, ptr, ptr, ptr, ptr, i64, i64, ptr, i64, ptr, ptr, i8, i8, i8, i8, i8, i8, i64, ptr, i64, i64 }
%struct._arg_separators = type { ptr, ptr }
%struct._zend_llist = type { ptr, ptr, i64, i64, ptr, i8, ptr }
%struct._zend_string = type { %struct._zend_refcounted_h, i64, i64, [1 x i8] }
%struct._zend_execute_data = type { ptr, ptr, ptr, ptr, %struct._zval_struct, ptr, ptr, ptr, ptr }

@core_globals = external global %struct._php_core_globals, align 8
@zend_known_strings = external global ptr, align 8

; Function Attrs: nounwind uwtable
define hidden void @zif_error_get_last(ptr noundef %0, ptr noundef %1) #0 {
  %3 = alloca ptr, align 8
  %4 = alloca ptr, align 8
  %5 = alloca i32, align 4
  %6 = alloca i32, align 4
  %7 = alloca ptr, align 8
  %8 = alloca ptr, align 8
  %9 = alloca %struct._zval_struct, align 8
  %10 = alloca ptr, align 8
  %11 = alloca ptr, align 8
  %12 = alloca ptr, align 8
  %13 = alloca ptr, align 8
  %14 = alloca ptr, align 8
  %15 = alloca ptr, align 8
  %16 = alloca ptr, align 8
  %17 = alloca ptr, align 8
  store ptr %0, ptr %7, align 8
  store ptr %1, ptr %8, align 8
  br label %18

18:                                               ; preds = %2
  %19 = load ptr, ptr %7, align 8
  %20 = getelementptr inbounds %struct._zend_execute_data, ptr %19, i32 0, i32 4
  %21 = getelementptr inbounds %struct._zval_struct, ptr %20, i32 0, i32 2
  %22 = load i32, ptr %21, align 4
  %23 = icmp ne i32 %22, 0
  %24 = xor i1 %23, true
  %25 = xor i1 %24, true
  %26 = zext i1 %25 to i32
  %27 = sext i32 %26 to i64
  %28 = icmp ne i64 %27, 0
  br i1 %28, label %29, label %30

29:                                               ; preds = %18
  call void @zend_wrong_parameters_none_error()
  br label %140

30:                                               ; preds = %18
  br label %31

31:                                               ; preds = %30
  %32 = load ptr, ptr getelementptr inbounds (%struct._php_core_globals, ptr @core_globals, i32 0, i32 57), align 8
  %33 = icmp ne ptr %32, null
  br i1 %33, label %34, label %140

34:                                               ; preds = %31
  br label %35

35:                                               ; preds = %34
  %36 = call ptr @_zend_new_array_0()
  store ptr %36, ptr %10, align 8
  %37 = load ptr, ptr %8, align 8
  store ptr %37, ptr %11, align 8
  %38 = load ptr, ptr %10, align 8
  %39 = load ptr, ptr %11, align 8
  %40 = getelementptr inbounds %struct._zval_struct, ptr %39, i32 0, i32 0
  store ptr %38, ptr %40, align 8
  %41 = load ptr, ptr %11, align 8
  %42 = getelementptr inbounds %struct._zval_struct, ptr %41, i32 0, i32 1
  store i32 775, ptr %42, align 8
  br label %43

43:                                               ; preds = %35
  br label %44

44:                                               ; preds = %43
  store ptr %9, ptr %12, align 8
  %45 = load i32, ptr getelementptr inbounds (%struct._php_core_globals, ptr @core_globals, i32 0, i32 55), align 8
  %46 = sext i32 %45 to i64
  %47 = load ptr, ptr %12, align 8
  %48 = getelementptr inbounds %struct._zval_struct, ptr %47, i32 0, i32 0
  store i64 %46, ptr %48, align 8
  %49 = load ptr, ptr %12, align 8
  %50 = getelementptr inbounds %struct._zval_struct, ptr %49, i32 0, i32 1
  store i32 4, ptr %50, align 8
  br label %51

51:                                               ; preds = %44
  %52 = load ptr, ptr %8, align 8
  %53 = getelementptr inbounds %struct._zval_struct, ptr %52, i32 0, i32 0
  %54 = load ptr, ptr %53, align 8
  %55 = load ptr, ptr @zend_known_strings, align 8
  %56 = getelementptr inbounds ptr, ptr %55, i64 5
  %57 = load ptr, ptr %56, align 8
  %58 = call ptr @zend_hash_update(ptr noundef %54, ptr noundef %57, ptr noundef %9)
  br label %59

59:                                               ; preds = %51
  store ptr %9, ptr %13, align 8
  %60 = load ptr, ptr getelementptr inbounds (%struct._php_core_globals, ptr @core_globals, i32 0, i32 57), align 8
  store ptr %60, ptr %14, align 8
  %61 = load ptr, ptr %14, align 8
  %62 = load ptr, ptr %13, align 8
  %63 = getelementptr inbounds %struct._zval_struct, ptr %62, i32 0, i32 0
  store ptr %61, ptr %63, align 8
  %64 = load ptr, ptr %14, align 8
  %65 = getelementptr inbounds %struct._zend_string, ptr %64, i32 0, i32 0
  %66 = getelementptr inbounds %struct._zend_refcounted_h, ptr %65, i32 0, i32 1
  %67 = load i32, ptr %66, align 4
  store i32 %67, ptr %5, align 4
  %68 = load i32, ptr %5, align 4
  %69 = and i32 %68, 1008
  %70 = and i32 %69, 64
  %71 = icmp ne i32 %70, 0
  br i1 %71, label %72, label %75

72:                                               ; preds = %59
  %73 = load ptr, ptr %13, align 8
  %74 = getelementptr inbounds %struct._zval_struct, ptr %73, i32 0, i32 1
  store i32 6, ptr %74, align 8
  br label %83

75:                                               ; preds = %59
  %76 = load ptr, ptr %14, align 8
  %77 = getelementptr inbounds %struct._zend_string, ptr %76, i32 0, i32 0
  store ptr %77, ptr %3, align 8
  %78 = load ptr, ptr %3, align 8
  %79 = load i32, ptr %78, align 4
  %80 = add i32 %79, 1
  store i32 %80, ptr %78, align 4
  %81 = load ptr, ptr %13, align 8
  %82 = getelementptr inbounds %struct._zval_struct, ptr %81, i32 0, i32 1
  store i32 262, ptr %82, align 8
  br label %83

83:                                               ; preds = %75, %72
  br label %84

84:                                               ; preds = %83
  %85 = load ptr, ptr %8, align 8
  %86 = getelementptr inbounds %struct._zval_struct, ptr %85, i32 0, i32 0
  %87 = load ptr, ptr %86, align 8
  %88 = load ptr, ptr @zend_known_strings, align 8
  %89 = getelementptr inbounds ptr, ptr %88, i64 25
  %90 = load ptr, ptr %89, align 8
  %91 = call ptr @zend_hash_update(ptr noundef %87, ptr noundef %90, ptr noundef %9)
  br label %92

92:                                               ; preds = %84
  store ptr %9, ptr %15, align 8
  %93 = load ptr, ptr getelementptr inbounds (%struct._php_core_globals, ptr @core_globals, i32 0, i32 58), align 8
  store ptr %93, ptr %16, align 8
  %94 = load ptr, ptr %16, align 8
  %95 = load ptr, ptr %15, align 8
  %96 = getelementptr inbounds %struct._zval_struct, ptr %95, i32 0, i32 0
  store ptr %94, ptr %96, align 8
  %97 = load ptr, ptr %16, align 8
  %98 = getelementptr inbounds %struct._zend_string, ptr %97, i32 0, i32 0
  %99 = getelementptr inbounds %struct._zend_refcounted_h, ptr %98, i32 0, i32 1
  %100 = load i32, ptr %99, align 4
  store i32 %100, ptr %6, align 4
  %101 = load i32, ptr %6, align 4
  %102 = and i32 %101, 1008
  %103 = and i32 %102, 64
  %104 = icmp ne i32 %103, 0
  br i1 %104, label %105, label %108

105:                                              ; preds = %92
  %106 = load ptr, ptr %15, align 8
  %107 = getelementptr inbounds %struct._zval_struct, ptr %106, i32 0, i32 1
  store i32 6, ptr %107, align 8
  br label %116

108:                                              ; preds = %92
  %109 = load ptr, ptr %16, align 8
  %110 = getelementptr inbounds %struct._zend_string, ptr %109, i32 0, i32 0
  store ptr %110, ptr %4, align 8
  %111 = load ptr, ptr %4, align 8
  %112 = load i32, ptr %111, align 4
  %113 = add i32 %112, 1
  store i32 %113, ptr %111, align 4
  %114 = load ptr, ptr %15, align 8
  %115 = getelementptr inbounds %struct._zval_struct, ptr %114, i32 0, i32 1
  store i32 262, ptr %115, align 8
  br label %116

116:                                              ; preds = %108, %105
  br label %117

117:                                              ; preds = %116
  %118 = load ptr, ptr %8, align 8
  %119 = getelementptr inbounds %struct._zval_struct, ptr %118, i32 0, i32 0
  %120 = load ptr, ptr %119, align 8
  %121 = load ptr, ptr @zend_known_strings, align 8
  %122 = getelementptr inbounds ptr, ptr %121, i64 0
  %123 = load ptr, ptr %122, align 8
  %124 = call ptr @zend_hash_update(ptr noundef %120, ptr noundef %123, ptr noundef %9)
  br label %125

125:                                              ; preds = %117
  store ptr %9, ptr %17, align 8
  %126 = load i32, ptr getelementptr inbounds (%struct._php_core_globals, ptr @core_globals, i32 0, i32 56), align 4
  %127 = sext i32 %126 to i64
  %128 = load ptr, ptr %17, align 8
  %129 = getelementptr inbounds %struct._zval_struct, ptr %128, i32 0, i32 0
  store i64 %127, ptr %129, align 8
  %130 = load ptr, ptr %17, align 8
  %131 = getelementptr inbounds %struct._zval_struct, ptr %130, i32 0, i32 1
  store i32 4, ptr %131, align 8
  br label %132

132:                                              ; preds = %125
  %133 = load ptr, ptr %8, align 8
  %134 = getelementptr inbounds %struct._zval_struct, ptr %133, i32 0, i32 0
  %135 = load ptr, ptr %134, align 8
  %136 = load ptr, ptr @zend_known_strings, align 8
  %137 = getelementptr inbounds ptr, ptr %136, i64 1
  %138 = load ptr, ptr %137, align 8
  %139 = call ptr @zend_hash_update(ptr noundef %135, ptr noundef %138, ptr noundef %9)
  br label %140

140:                                              ; preds = %132, %31, %29
  ret void
}