; Function Attrs: nounwind uwtable
define hidden void @zif_error_get_last(ptr nocapture noundef readonly %0, ptr nocapture noundef %1) #0 {
  %3 = alloca %struct._zval_struct, align 8
  %4 = getelementptr inbounds i8, ptr %0, i64 44
  %5 = load i32, ptr %4, align 4
  %.not = icmp eq i32 %5, 0
  br i1 %.not, label %7, label %6

6:                                                ; preds = %2
  tail call void @zend_wrong_parameters_none_error() #18
  br label %51

7:                                                ; preds = %2
  %8 = load ptr, ptr getelementptr inbounds (%struct._php_core_globals, ptr @core_globals, i64 0, i32 57), align 8
  %.not28 = icmp eq ptr %8, null
  br i1 %.not28, label %51, label %9

9:                                                ; preds = %7
  %10 = tail call ptr @_zend_new_array_0() #18
  store ptr %10, ptr %1, align 8
  %11 = getelementptr inbounds i8, ptr %1, i64 8
  store i32 775, ptr %11, align 8
  %12 = load i32, ptr getelementptr inbounds (%struct._php_core_globals, ptr @core_globals, i64 0, i32 55), align 8
  %13 = sext i32 %12 to i64
  store i64 %13, ptr %3, align 8
  %14 = getelementptr inbounds i8, ptr %3, i64 8
  store i32 4, ptr %14, align 8
  %15 = load ptr, ptr @zend_known_strings, align 8
  %16 = getelementptr inbounds i8, ptr %15, i64 40
  %17 = load ptr, ptr %16, align 8
  %18 = call ptr @zend_hash_update(ptr noundef %10, ptr noundef %17, ptr noundef nonnull %3) #18
  %19 = load ptr, ptr getelementptr inbounds (%struct._php_core_globals, ptr @core_globals, i64 0, i32 57), align 8
  store ptr %19, ptr %3, align 8
  %20 = getelementptr inbounds i8, ptr %19, i64 4
  %21 = load i32, ptr %20, align 4
  %22 = and i32 %21, 64
  %.not29 = icmp eq i32 %22, 0
  br i1 %.not29, label %23, label %26

23:                                               ; preds = %9
  %24 = load i32, ptr %19, align 4
  %25 = add i32 %24, 1
  store i32 %25, ptr %19, align 4
  br label %26

26:                                               ; preds = %9, %23
  %storemerge = phi i32 [ 262, %23 ], [ 6, %9 ]
  store i32 %storemerge, ptr %14, align 8
  %27 = load ptr, ptr %1, align 8
  %28 = load ptr, ptr @zend_known_strings, align 8
  %29 = getelementptr inbounds i8, ptr %28, i64 200
  %30 = load ptr, ptr %29, align 8
  %31 = call ptr @zend_hash_update(ptr noundef %27, ptr noundef %30, ptr noundef nonnull %3) #18
  %32 = load ptr, ptr getelementptr inbounds (%struct._php_core_globals, ptr @core_globals, i64 0, i32 58), align 8
  store ptr %32, ptr %3, align 8
  %33 = getelementptr inbounds i8, ptr %32, i64 4
  %34 = load i32, ptr %33, align 4
  %35 = and i32 %34, 64
  %.not30 = icmp eq i32 %35, 0
  br i1 %.not30, label %36, label %39

36:                                               ; preds = %26
  %37 = load i32, ptr %32, align 4
  %38 = add i32 %37, 1
  store i32 %38, ptr %32, align 4
  br label %39

39:                                               ; preds = %26, %36
  %storemerge31 = phi i32 [ 262, %36 ], [ 6, %26 ]
  store i32 %storemerge31, ptr %14, align 8
  %40 = load ptr, ptr %1, align 8
  %41 = load ptr, ptr @zend_known_strings, align 8
  %42 = load ptr, ptr %41, align 8
  %43 = call ptr @zend_hash_update(ptr noundef %40, ptr noundef %42, ptr noundef nonnull %3) #18
  %44 = load i32, ptr getelementptr inbounds (%struct._php_core_globals, ptr @core_globals, i64 0, i32 56), align 4
  %45 = sext i32 %44 to i64
  store i64 %45, ptr %3, align 8
  store i32 4, ptr %14, align 8
  %46 = load ptr, ptr %1, align 8
  %47 = load ptr, ptr @zend_known_strings, align 8
  %48 = getelementptr inbounds i8, ptr %47, i64 8
  %49 = load ptr, ptr %48, align 8
  %50 = call ptr @zend_hash_update(ptr noundef %46, ptr noundef %49, ptr noundef nonnull %3) #18
  br label %51

51:                                               ; preds = %39, %7, %6
  ret void
}